; Function Attrs: nounwind uwtable
define dso_local range(i32 -2147483647, -2147483648) i32 @string_list_split_in_place(ptr noundef captures(none) %0, ptr noundef %1, ptr noundef readonly captures(none) %2, i32 noundef %3) local_unnamed_addr #4 {
  %5 = getelementptr inbounds nuw i8, ptr %0, i64 24
  %6 = load i8, ptr %5, align 8
  %7 = and i8 %6, 1
  %.not = icmp eq i8 %7, 0
  br i1 %.not, label %.preheader, label %40

.preheader:                                       ; preds = %4
  %or.cond47.not = icmp eq i32 %3, 0
  br i1 %or.cond47.not, label %._crit_edge.thread, label %.lr.ph

.lr.ph:                                           ; preds = %.preheader
  %8 = icmp slt i32 %3, 0
  %9 = getelementptr inbounds nuw i8, ptr %0, i64 8
  %10 = getelementptr inbounds nuw i8, ptr %0, i64 16
  br i1 %8, label %.lr.ph.split.us, label %.lr.ph.split.preheader

.lr.ph.split.preheader:                           ; preds = %.lr.ph
  %11 = add nuw i32 %3, 1
  br label %.lr.ph.split

.lr.ph.split.us:                                  ; preds = %.lr.ph
  %12 = tail call ptr @strpbrk(ptr noundef %1, ptr noundef %2) #13
  %.not23.us54 = icmp eq ptr %12, null
  br i1 %.not23.us54, label %.split.us, label %.lr.ph56

.lr.ph56:                                         ; preds = %.lr.ph.split.us, %string_list_append.exit32.us
  %13 = phi ptr [ %39, %string_list_append.exit32.us ], [ %12, %.lr.ph.split.us ]
  %.01948.us55 = phi ptr [ %37, %string_list_append.exit32.us ], [ %1, %.lr.ph.split.us ]
  %14 = phi i32 [ %38, %string_list_append.exit32.us ], [ 1, %.lr.ph.split.us ]
  store i8 0, ptr %13, align 1, !tbaa !27
  %15 = load i8, ptr %5, align 8
  %16 = and i8 %15, 1
  %.not.i24.us = icmp eq i8 %16, 0
  br i1 %.not.i24.us, label %19, label %17

17:                                               ; preds = %.lr.ph56
  %18 = tail call ptr @xstrdup(ptr noundef %.01948.us55) #11
  br label %19

19:                                               ; preds = %17, %.lr.ph56
  %20 = phi ptr [ %18, %17 ], [ %.01948.us55, %.lr.ph56 ]
  %21 = load i64, ptr %9, align 8, !tbaa !4
  %22 = add i64 %21, 1
  %23 = load i64, ptr %10, align 8, !tbaa !19
  %24 = icmp ugt i64 %22, %23
  br i1 %24, label %25, label %._crit_edge.i.i25.us

._crit_edge.i.i25.us:                             ; preds = %19
  %.pre.i.i26.us = load ptr, ptr %0, align 8, !tbaa !13
  br label %string_list_append.exit32.us

25:                                               ; preds = %19
  %26 = mul i64 %23, 3
  %27 = add i64 %26, 48
  %28 = lshr i64 %27, 1
  %..i.i28.us = tail call i64 @llvm.umax.i64(i64 %28, i64 %22)
  store i64 %..i.i28.us, ptr %10, align 8, !tbaa !19
  %29 = icmp ugt i64 %..i.i28.us, 1152921504606846975
  br i1 %29, label %.split52.us, label %st_mult.exit.i.i29.us

st_mult.exit.i.i29.us:                            ; preds = %25
  %30 = load ptr, ptr %0, align 8, !tbaa !13
  %31 = shl nuw i64 %..i.i28.us, 4
  %32 = tail call ptr @xrealloc(ptr noundef %30, i64 noundef %31) #11
  store ptr %32, ptr %0, align 8, !tbaa !13
  %.pre19.i.i30.us = load i64, ptr %9, align 8, !tbaa !4
  %.pre20.i.i31.us = add i64 %.pre19.i.i30.us, 1
  br label %string_list_append.exit32.us

string_list_append.exit32.us:                     ; preds = %st_mult.exit.i.i29.us, %._crit_edge.i.i25.us
  %.pre-phi.i.i27.us = phi i64 [ %22, %._crit_edge.i.i25.us ], [ %.pre20.i.i31.us, %st_mult.exit.i.i29.us ]
  %33 = phi i64 [ %21, %._crit_edge.i.i25.us ], [ %.pre19.i.i30.us, %st_mult.exit.i.i29.us ]
  %34 = phi ptr [ %.pre.i.i26.us, %._crit_edge.i.i25.us ], [ %32, %st_mult.exit.i.i29.us ]
  store i64 %.pre-phi.i.i27.us, ptr %9, align 8, !tbaa !4
  %35 = getelementptr inbounds nuw %struct.string_list_item, ptr %34, i64 %33
  store ptr %20, ptr %35, align 8, !tbaa !14
  %36 = getelementptr inbounds nuw i8, ptr %35, i64 8
  store ptr null, ptr %36, align 8, !tbaa !20
  %37 = getelementptr inbounds nuw i8, ptr %13, i64 1
  %38 = add nuw nsw i32 %14, 1
  %39 = tail call ptr @strpbrk(ptr noundef nonnull %37, ptr noundef %2) #13
  %.not23.us = icmp eq ptr %39, null
  br i1 %.not23.us, label %.split.us, label %.lr.ph56

40:                                               ; preds = %4
  tail call void (ptr, ...) @die(ptr noundef nonnull @.str.5) #12
  unreachable

._crit_edge:                                      ; preds = %string_list_append.exit32
  %.pre = load i8, ptr %5, align 8
  %.pre70 = and i8 %.pre, 1
  %41 = icmp eq i8 %.pre70, 0
  br i1 %41, label %._crit_edge.thread, label %42

42:                                               ; preds = %._crit_edge
  %43 = tail call ptr @xstrdup(ptr noundef nonnull %88) #11
  br label %._crit_edge.thread

._crit_edge.thread:                               ; preds = %.preheader, %42, %._crit_edge
  %.lcssa74 = phi i32 [ %11, %42 ], [ %11, %._crit_edge ], [ 1, %.preheader ]
  %44 = phi ptr [ %43, %42 ], [ %88, %._crit_edge ], [ %1, %.preheader ]
  %45 = getelementptr inbounds nuw i8, ptr %0, i64 8
  %46 = load i64, ptr %45, align 8, !tbaa !4
  %47 = add i64 %46, 1
  %48 = getelementptr inbounds nuw i8, ptr %0, i64 16
  %49 = load i64, ptr %48, align 8, !tbaa !19
  %50 = icmp ugt i64 %47, %49
  br i1 %50, label %51, label %._crit_edge.i.i

._crit_edge.i.i:                                  ; preds = %._crit_edge.thread
  %.pre.i.i = load ptr, ptr %0, align 8, !tbaa !13
  br label %string_list_append.exit

51:                                               ; preds = %._crit_edge.thread
  %52 = mul i64 %49, 3
  %53 = add i64 %52, 48
  %54 = lshr i64 %53, 1
  %..i.i = tail call i64 @llvm.umax.i64(i64 %54, i64 %47)
  store i64 %..i.i, ptr %48, align 8, !tbaa !19
  %55 = icmp ugt i64 %..i.i, 1152921504606846975
  br i1 %55, label %56, label %st_mult.exit.i.i

56:                                               ; preds = %51
  tail call void (ptr, ...) @die(ptr noundef nonnull @.str.6, i64 noundef 16, i64 noundef %..i.i) #12
  unreachable

st_mult.exit.i.i:                                 ; preds = %51
  %57 = load ptr, ptr %0, align 8, !tbaa !13
  %58 = shl nuw i64 %..i.i, 4
  %59 = tail call ptr @xrealloc(ptr noundef %57, i64 noundef %58) #11
  store ptr %59, ptr %0, align 8, !tbaa !13
  %.pre19.i.i = load i64, ptr %45, align 8, !tbaa !4
  %.pre20.i.i = add i64 %.pre19.i.i, 1
  br label %string_list_append.exit

string_list_append.exit:                          ; preds = %._crit_edge.i.i, %st_mult.exit.i.i
  %.pre-phi.i.i = phi i64 [ %47, %._crit_edge.i.i ], [ %.pre20.i.i, %st_mult.exit.i.i ]
  %60 = phi i64 [ %46, %._crit_edge.i.i ], [ %.pre19.i.i, %st_mult.exit.i.i ]
  %61 = phi ptr [ %.pre.i.i, %._crit_edge.i.i ], [ %59, %st_mult.exit.i.i ]
  store i64 %.pre-phi.i.i, ptr %45, align 8, !tbaa !4
  %62 = getelementptr inbounds nuw %struct.string_list_item, ptr %61, i64 %60
  store ptr %44, ptr %62, align 8, !tbaa !14
  br label %112

.lr.ph.split:                                     ; preds = %.lr.ph.split.preheader, %string_list_append.exit32
  %63 = phi i32 [ %89, %string_list_append.exit32 ], [ 1, %.lr.ph.split.preheader ]
  %.01948 = phi ptr [ %88, %string_list_append.exit32 ], [ %1, %.lr.ph.split.preheader ]
  %64 = tail call ptr @strpbrk(ptr noundef %.01948, ptr noundef %2) #13
  %.not23 = icmp eq ptr %64, null
  br i1 %.not23, label %.split.us, label %65

65:                                               ; preds = %.lr.ph.split
  store i8 0, ptr %64, align 1, !tbaa !27
  %66 = load i8, ptr %5, align 8
  %67 = and i8 %66, 1
  %.not.i24 = icmp eq i8 %67, 0
  br i1 %.not.i24, label %70, label %68

68:                                               ; preds = %65
  %69 = tail call ptr @xstrdup(ptr noundef %.01948) #11
  br label %70

70:                                               ; preds = %68, %65
  %71 = phi ptr [ %69, %68 ], [ %.01948, %65 ]
  %72 = load i64, ptr %9, align 8, !tbaa !4
  %73 = add i64 %72, 1
  %74 = load i64, ptr %10, align 8, !tbaa !19
  %75 = icmp ugt i64 %73, %74
  br i1 %75, label %76, label %._crit_edge.i.i25

._crit_edge.i.i25:                                ; preds = %70
  %.pre.i.i26 = load ptr, ptr %0, align 8, !tbaa !13
  br label %string_list_append.exit32

76:                                               ; preds = %70
  %77 = mul i64 %74, 3
  %78 = add i64 %77, 48
  %79 = lshr i64 %78, 1
  %..i.i28 = tail call i64 @llvm.umax.i64(i64 %79, i64 %73)
  store i64 %..i.i28, ptr %10, align 8, !tbaa !19
  %80 = icmp ugt i64 %..i.i28, 1152921504606846975
  br i1 %80, label %.split52.us, label %st_mult.exit.i.i29

.split52.us:                                      ; preds = %76, %25
  %.us-phi53 = phi i64 [ %..i.i28.us, %25 ], [ %..i.i28, %76 ]
  tail call void (ptr, ...) @die(ptr noundef nonnull @.str.6, i64 noundef 16, i64 noundef %.us-phi53) #12
  unreachable

st_mult.exit.i.i29:                               ; preds = %76
  %81 = load ptr, ptr %0, align 8, !tbaa !13
  %82 = shl nuw i64 %..i.i28, 4
  %83 = tail call ptr @xrealloc(ptr noundef %81, i64 noundef %82) #11
  store ptr %83, ptr %0, align 8, !tbaa !13
  %.pre19.i.i30 = load i64, ptr %9, align 8, !tbaa !4
  %.pre20.i.i31 = add i64 %.pre19.i.i30, 1
  br label %string_list_append.exit32

string_list_append.exit32:                        ; preds = %._crit_edge.i.i25, %st_mult.exit.i.i29
  %.pre-phi.i.i27 = phi i64 [ %73, %._crit_edge.i.i25 ], [ %.pre20.i.i31, %st_mult.exit.i.i29 ]
  %84 = phi i64 [ %72, %._crit_edge.i.i25 ], [ %.pre19.i.i30, %st_mult.exit.i.i29 ]
  %85 = phi ptr [ %.pre.i.i26, %._crit_edge.i.i25 ], [ %83, %st_mult.exit.i.i29 ]
  store i64 %.pre-phi.i.i27, ptr %9, align 8, !tbaa !4
  %86 = getelementptr inbounds nuw %struct.string_list_item, ptr %85, i64 %84
  store ptr %71, ptr %86, align 8, !tbaa !14
  %87 = getelementptr inbounds nuw i8, ptr %86, i64 8
  store ptr null, ptr %87, align 8, !tbaa !20
  %88 = getelementptr inbounds nuw i8, ptr %64, i64 1
  %89 = add nuw i32 %63, 1
  %exitcond.not = icmp eq i32 %63, %3
  br i1 %exitcond.not, label %._crit_edge, label %.lr.ph.split

.split.us:                                        ; preds = %.lr.ph.split, %string_list_append.exit32.us, %.lr.ph.split.us
  %.us-phi = phi ptr [ %1, %.lr.ph.split.us ], [ %37, %string_list_append.exit32.us ], [ %.01948, %.lr.ph.split ]
  %.us-phi50 = phi i32 [ 1, %.lr.ph.split.us ], [ %38, %string_list_append.exit32.us ], [ %63, %.lr.ph.split ]
  %90 = load i8, ptr %5, align 8
  %91 = and i8 %90, 1
  %.not.i33 = icmp eq i8 %91, 0
  br i1 %.not.i33, label %94, label %92

92:                                               ; preds = %.split.us
  %93 = tail call ptr @xstrdup(ptr noundef %.us-phi) #11
  br label %94

94:                                               ; preds = %92, %.split.us
  %95 = phi ptr [ %93, %92 ], [ %.us-phi, %.split.us ]
  %96 = load i64, ptr %9, align 8, !tbaa !4
  %97 = add i64 %96, 1
  %98 = load i64, ptr %10, align 8, !tbaa !19
  %99 = icmp ugt i64 %97, %98
  br i1 %99, label %100, label %._crit_edge.i.i34

._crit_edge.i.i34:                                ; preds = %94
  %.pre.i.i35 = load ptr, ptr %0, align 8, !tbaa !13
  br label %string_list_append.exit41

100:                                              ; preds = %94
  %101 = mul i64 %98, 3
  %102 = add i64 %101, 48
  %103 = lshr i64 %102, 1
  %..i.i37 = tail call i64 @llvm.umax.i64(i64 %103, i64 %97)
  store i64 %..i.i37, ptr %10, align 8, !tbaa !19
  %104 = icmp ugt i64 %..i.i37, 1152921504606846975
  br i1 %104, label %105, label %st_mult.exit.i.i38

105:                                              ; preds = %100
  tail call void (ptr, ...) @die(ptr noundef nonnull @.str.6, i64 noundef 16, i64 noundef %..i.i37) #12
  unreachable

st_mult.exit.i.i38:                               ; preds = %100
  %106 = load ptr, ptr %0, align 8, !tbaa !13
  %107 = shl nuw i64 %..i.i37, 4
  %108 = tail call ptr @xrealloc(ptr noundef %106, i64 noundef %107) #11
  store ptr %108, ptr %0, align 8, !tbaa !13
  %.pre19.i.i39 = load i64, ptr %9, align 8, !tbaa !4
  %.pre20.i.i40 = add i64 %.pre19.i.i39, 1
  br label %string_list_append.exit41

string_list_append.exit41:                        ; preds = %._crit_edge.i.i34, %st_mult.exit.i.i38
  %.pre-phi.i.i36 = phi i64 [ %97, %._crit_edge.i.i34 ], [ %.pre20.i.i40, %st_mult.exit.i.i38 ]
  %109 = phi i64 [ %96, %._crit_edge.i.i34 ], [ %.pre19.i.i39, %st_mult.exit.i.i38 ]
  %110 = phi ptr [ %.pre.i.i35, %._crit_edge.i.i34 ], [ %108, %st_mult.exit.i.i38 ]
  store i64 %.pre-phi.i.i36, ptr %9, align 8, !tbaa !4
  %111 = getelementptr inbounds nuw %struct.string_list_item, ptr %110, i64 %109
  store ptr %95, ptr %111, align 8, !tbaa !14
  br label %112

112:                                              ; preds = %string_list_append.exit41, %string_list_append.exit
  %.sink84 = phi ptr [ %111, %string_list_append.exit41 ], [ %62, %string_list_append.exit ]
  %113 = phi i32 [ %.us-phi50, %string_list_append.exit41 ], [ %.lcssa74, %string_list_append.exit ]
  %114 = getelementptr inbounds nuw i8, ptr %.sink84, i64 8
  store ptr null, ptr %114, align 8, !tbaa !20
  ret i32 %113
}